target datalayout = "e-m:e-p270:32:32-p271:32:32-p272:64:64-i64:64-i128:128-f80:128-n8:16:32:64-S128"
target triple = "x86_64-pc-linux-gnu"

%"struct.vcpkg::LocalizedString" = type { %"class.std::__cxx11::basic_string" }
%"class.std::__cxx11::basic_string" = type { %"struct.std::__cxx11::basic_string<char>::_Alloc_hider", i64, %union.anon }
%"struct.std::__cxx11::basic_string<char>::_Alloc_hider" = type { ptr }
%union.anon = type { i64, [8 x i8] }
%"struct.vcpkg::StringView" = type { ptr, i64 }

@_ZN5vcpkg19InternalErrorPrefixE = linkonce_odr dso_local constant { ptr, i64 } { ptr @.str.75, i64 16 }, comdat, align 8
@_ZN5vcpkg15LocalizedStringC1ENS_10StringViewE = dso_local unnamed_addr alias void (ptr, ptr, i64), ptr @_ZN5vcpkg15LocalizedStringC2ENS_10StringViewE

; Function Attrs: mustprogress uwtable
define dso_local void @_ZN5vcpkg15LocalizedString8from_rawENS_10StringViewE(ptr dead_on_unwind noalias writable sret(%"struct.vcpkg::LocalizedString") align 8 %0, ptr %1, i64 %2) #2 align 2 {
  %4 = alloca ptr, align 8
  %5 = alloca %"struct.vcpkg::StringView", align 8
  %6 = alloca %"struct.vcpkg::StringView", align 8
  store ptr %0, ptr %4, align 8
  %7 = getelementptr inbounds { ptr, i64 }, ptr %5, i32 0, i32 0
  store ptr %1, ptr %7, align 8
  %8 = getelementptr inbounds { ptr, i64 }, ptr %5, i32 0, i32 1
  store i64 %2, ptr %8, align 8
  call void @llvm.memcpy.p0.p0.i64(ptr align 8 %6, ptr align 8 %5, i64 16, i1 false)
  %9 = getelementptr inbounds { ptr, i64 }, ptr %6, i32 0, i32 0
  %10 = load ptr, ptr %9, align 8
  %11 = getelementptr inbounds { ptr, i64 }, ptr %6, i32 0, i32 1
  %12 = load i64, ptr %11, align 8
  call void @_ZN5vcpkg15LocalizedStringC1ENS_10StringViewE(ptr noundef nonnull align 8 dereferenceable(32) %0, ptr %10, i64 %12)
  ret void
}

; Function Attrs: mustprogress uwtable
define dso_local void @_ZN5vcpkg21internal_error_prefixEv(ptr dead_on_unwind noalias writable sret(%"struct.vcpkg::LocalizedString") align 8 %0) #2 {
  %2 = alloca ptr, align 8
  %3 = alloca %"struct.vcpkg::StringView", align 8
  store ptr %0, ptr %2, align 8
  call void @llvm.memcpy.p0.p0.i64(ptr align 8 %3, ptr align 8 @_ZN5vcpkg19InternalErrorPrefixE, i64 16, i1 false)
  %4 = getelementptr inbounds { ptr, i64 }, ptr %3, i32 0, i32 0
  %5 = load ptr, ptr %4, align 8
  %6 = getelementptr inbounds { ptr, i64 }, ptr %3, i32 0, i32 1
  %7 = load i64, ptr %6, align 8
  call void @_ZN5vcpkg15LocalizedString8from_rawENS_10StringViewE(ptr dead_on_unwind writable sret(%"struct.vcpkg::LocalizedString") align 8 %0, ptr %5, i64 %7)
  ret void
}